target datalayout = "e-m:e-p270:32:32-p271:32:32-p272:64:64-i64:64-i128:128-f80:128-n8:16:32:64-S128"
target triple = "x86_64-pc-linux-gnu"

%struct.mbedtls_psa_mac_operation_t = type { i32, %union.anon }
%union.anon = type { %struct.mbedtls_psa_hmac_operation_t }
%struct.mbedtls_psa_hmac_operation_t = type { i32, %struct.psa_hash_operation_s, [144 x i8] }
%struct.psa_hash_operation_s = type { i32, %union.psa_driver_hash_context_t }
%union.psa_driver_hash_context_t = type { %struct.mbedtls_psa_hash_operation_t }
%struct.mbedtls_psa_hash_operation_t = type { i32, %union.anon.0 }
%union.anon.0 = type { %struct.mbedtls_sha512_context }
%struct.mbedtls_sha512_context = type { [2 x i64], [8 x i64], [128 x i8], i32 }

; Function Attrs: nounwind uwtable
define internal i32 @psa_hmac_update_internal(ptr noundef %0, ptr noundef %1, i64 noundef %2) #0 {
  %4 = alloca ptr, align 8
  %5 = alloca ptr, align 8
  %6 = alloca i64, align 8
  store ptr %0, ptr %4, align 8, !tbaa !3
  store ptr %1, ptr %5, align 8, !tbaa !12
  store i64 %2, ptr %6, align 8, !tbaa !14
  %7 = load ptr, ptr %4, align 8, !tbaa !3
  %8 = getelementptr inbounds nuw %struct.mbedtls_psa_hmac_operation_t, ptr %7, i32 0, i32 1
  %9 = load ptr, ptr %5, align 8, !tbaa !12
  %10 = load i64, ptr %6, align 8, !tbaa !14
  %11 = call i32 @psa_hash_update(ptr noundef %8, ptr noundef %9, i64 noundef %10)
  ret i32 %11
}

; Function Attrs: nounwind uwtable
define hidden i32 @mbedtls_psa_mac_update(ptr noundef %0, ptr noundef %1, i64 noundef %2) #0 {
  %4 = alloca i32, align 4
  %5 = alloca ptr, align 8
  %6 = alloca ptr, align 8
  %7 = alloca i64, align 8
  store ptr %0, ptr %5, align 8, !tbaa !3
  store ptr %1, ptr %6, align 8, !tbaa !12
  store i64 %2, ptr %7, align 8, !tbaa !14
  %8 = load ptr, ptr %5, align 8, !tbaa !3
  %9 = getelementptr inbounds nuw %struct.mbedtls_psa_mac_operation_t, ptr %8, i32 0, i32 0
  %10 = load i32, ptr %9, align 8, !tbaa !7
  %11 = icmp eq i32 %10, 0
  br i1 %11, label %12, label %13

12:                                               ; preds = %3
  store i32 -137, ptr %4, align 4
  br label %39

13:                                               ; preds = %3
  %14 = load ptr, ptr %5, align 8, !tbaa !3
  %15 = getelementptr inbounds nuw %struct.mbedtls_psa_mac_operation_t, ptr %14, i32 0, i32 0
  %16 = load i32, ptr %15, align 8, !tbaa !7
  %17 = and i32 %16, -4161537
  %18 = icmp eq i32 %17, 62915072
  br i1 %18, label %19, label %26

19:                                               ; preds = %13
  %20 = load ptr, ptr %5, align 8, !tbaa !3
  %21 = getelementptr inbounds nuw %struct.mbedtls_psa_mac_operation_t, ptr %20, i32 0, i32 1
  %22 = load ptr, ptr %6, align 8, !tbaa !12
  %23 = load i64, ptr %7, align 8, !tbaa !14
  %24 = call i32 @mbedtls_cipher_cmac_update(ptr noundef %21, ptr noundef %22, i64 noundef %23)
  %25 = call i32 @mbedtls_to_psa_error(i32 noundef %24)
  store i32 %25, ptr %4, align 4
  br label %39

26:                                               ; preds = %13
  %27 = load ptr, ptr %5, align 8, !tbaa !3
  %28 = getelementptr inbounds nuw %struct.mbedtls_psa_mac_operation_t, ptr %27, i32 0, i32 0
  %29 = load i32, ptr %28, align 8, !tbaa !7
  %30 = and i32 %29, 2143289344
  %31 = icmp eq i32 %30, 58720256
  br i1 %31, label %32, label %38

32:                                               ; preds = %26
  %33 = load ptr, ptr %5, align 8, !tbaa !3
  %34 = getelementptr inbounds nuw %struct.mbedtls_psa_mac_operation_t, ptr %33, i32 0, i32 1
  %35 = load ptr, ptr %6, align 8, !tbaa !12
  %36 = load i64, ptr %7, align 8, !tbaa !14
  %37 = call i32 @psa_hmac_update_internal(ptr noundef %34, ptr noundef %35, i64 noundef %36)
  store i32 %37, ptr %4, align 4
  br label %39

38:                                               ; preds = %26
  store i32 -137, ptr %4, align 4
  br label %39

39:                                               ; preds = %38, %32, %19, %12
  %40 = load i32, ptr %4, align 4
  ret i32 %40
}