; Function Attrs: nounwind uwtable
define hidden i32 @mbedtls_psa_mac_update(ptr noundef %0, ptr noundef %1, i64 noundef %2) local_unnamed_addr #0 {
  %4 = load i32, ptr %0, align 8, !tbaa !3
  %5 = icmp eq i32 %4, 0
  br i1 %5, label %19, label %6

6:                                                ; preds = %3
  %7 = and i32 %4, -4161537
  %8 = icmp eq i32 %7, 62915072
  br i1 %8, label %9, label %13

9:                                                ; preds = %6
  %10 = getelementptr inbounds nuw i8, ptr %0, i64 8
  %11 = tail call i32 @mbedtls_cipher_cmac_update(ptr noundef nonnull %10, ptr noundef %1, i64 noundef %2) #5
  %12 = tail call i32 @mbedtls_to_psa_error(i32 noundef %11) #5
  br label %19

13:                                               ; preds = %6
  %14 = and i32 %4, 2143289344
  %15 = icmp eq i32 %14, 58720256
  br i1 %15, label %16, label %19

16:                                               ; preds = %13
  %17 = getelementptr inbounds nuw i8, ptr %0, i64 16
  %18 = tail call i32 @psa_hash_update(ptr noundef nonnull %17, ptr noundef %1, i64 noundef %2) #5
  br label %19

19:                                               ; preds = %13, %3, %16, %9
  %.0 = phi i32 [ %12, %9 ], [ %18, %16 ], [ -137, %3 ], [ -137, %13 ]
  ret i32 %.0
}